target datalayout = "e-m:e-p270:32:32-p271:32:32-p272:64:64-i64:64-i128:128-f80:128-n8:16:32:64-S128"
target triple = "x86_64-pc-linux-gnu"

%"class.llvm::MCTargetStreamer" = type { ptr, ptr }
%"class.llvm::SmallVectorBase" = type { ptr, i32, i32 }
%"class.std::__cxx11::basic_string" = type { %"struct.std::__cxx11::basic_string<char>::_Alloc_hider", i64, %union.anon }
%"struct.std::__cxx11::basic_string<char>::_Alloc_hider" = type { ptr }
%union.anon = type { i64, [8 x i8] }
%"class.llvm::RISCVTargetStreamer" = type <{ %"class.llvm::MCTargetStreamer", i32, i8, i8, [2 x i8] }>
%"class.llvm::ELFObjectWriter" = type { %"class.llvm::MCObjectWriter", i32, %"class.std::unique_ptr.92", ptr, ptr, %"class.llvm::DenseMap.100", %"class.llvm::DenseMap.103", i8, i8, %"class.std::optional", %"class.llvm::SmallVector.106" }
%"class.llvm::MCObjectWriter" = type { ptr, %"class.llvm::SmallVector.77", %"class.std::__cxx11::basic_string", %"class.std::vector.82", i8, i8, %"class.llvm::SmallVector.87" }
%"class.llvm::SmallVector.77" = type { %"class.llvm::SmallVectorImpl.78" }
%"class.llvm::SmallVectorImpl.78" = type { %"class.llvm::SmallVectorTemplateBase.79" }
%"class.llvm::SmallVectorTemplateBase.79" = type { %"class.llvm::SmallVectorTemplateCommon.80" }
%"class.llvm::SmallVectorTemplateCommon.80" = type { %"class.llvm::SmallVectorBase" }
%"class.std::vector.82" = type { %"struct.std::_Vector_base.83" }
%"struct.std::_Vector_base.83" = type { %"struct.std::_Vector_base<const llvm::MCSymbol *, std::allocator<const llvm::MCSymbol *>>::_Vector_impl" }
%"struct.std::_Vector_base<const llvm::MCSymbol *, std::allocator<const llvm::MCSymbol *>>::_Vector_impl" = type { %"struct.std::_Vector_base<const llvm::MCSymbol *, std::allocator<const llvm::MCSymbol *>>::_Vector_impl_data" }
%"struct.std::_Vector_base<const llvm::MCSymbol *, std::allocator<const llvm::MCSymbol *>>::_Vector_impl_data" = type { ptr, ptr, ptr }
%"class.llvm::SmallVector.87" = type { %"class.llvm::SmallVectorImpl.88" }
%"class.llvm::SmallVectorImpl.88" = type { %"class.llvm::SmallVectorTemplateBase.89" }
%"class.llvm::SmallVectorTemplateBase.89" = type { %"class.llvm::SmallVectorTemplateCommon.90" }
%"class.llvm::SmallVectorTemplateCommon.90" = type { %"class.llvm::SmallVectorBase" }
%"class.std::unique_ptr.92" = type { %"struct.std::__uniq_ptr_data.93" }
%"struct.std::__uniq_ptr_data.93" = type { %"class.std::__uniq_ptr_impl.94" }
%"class.std::__uniq_ptr_impl.94" = type { %"class.std::tuple.95" }
%"class.std::tuple.95" = type { %"struct.std::_Tuple_impl.96" }
%"struct.std::_Tuple_impl.96" = type { %"struct.std::_Head_base.99" }
%"struct.std::_Head_base.99" = type { ptr }
%"class.llvm::DenseMap.100" = type <{ ptr, i32, i32, i32, [4 x i8] }>
%"class.llvm::DenseMap.103" = type <{ ptr, i32, i32, i32, [4 x i8] }>
%"class.std::optional" = type { %"struct.std::_Optional_base" }
%"struct.std::_Optional_base" = type { %"struct.std::_Optional_payload" }
%"struct.std::_Optional_payload" = type { %"struct.std::_Optional_payload_base" }
%"struct.std::_Optional_payload_base" = type { %"union.std::_Optional_payload_base<unsigned char>::_Storage", i8 }
%"union.std::_Optional_payload_base<unsigned char>::_Storage" = type { %"struct.std::_Optional_payload_base<unsigned char>::_Empty_byte" }
%"struct.std::_Optional_payload_base<unsigned char>::_Empty_byte" = type { i8 }
%"class.llvm::SmallVector.106" = type { %"class.llvm::SmallVectorImpl.107" }
%"class.llvm::SmallVectorImpl.107" = type { %"class.llvm::SmallVectorTemplateBase.108" }
%"class.llvm::SmallVectorTemplateBase.108" = type { %"class.llvm::SmallVectorTemplateCommon.109" }
%"class.llvm::SmallVectorTemplateCommon.109" = type { %"class.llvm::SmallVectorBase" }

; Function Attrs: mustprogress nounwind uwtable
define linkonce_odr hidden void @_ZN4llvm15ELFObjectWriter18setELFHeaderEFlagsEj(ptr noundef nonnull align 8 dereferenceable(208) %0, i32 noundef %1) #0 comdat align 2 {
  %3 = alloca ptr, align 8
  %4 = alloca i32, align 4
  store ptr %0, ptr %3, align 8
  store i32 %1, ptr %4, align 4
  %5 = load ptr, ptr %3, align 8
  %6 = load i32, ptr %4, align 4
  %7 = getelementptr inbounds nuw %"class.llvm::ELFObjectWriter", ptr %5, i32 0, i32 1
  store i32 %6, ptr %7, align 8
  ret void
}

; Function Attrs: mustprogress nounwind uwtable
define linkonce_odr hidden noundef zeroext i1 @_ZNK4llvm19RISCVTargetStreamer6hasTSOEv(ptr noundef nonnull align 8 dereferenceable(22) %0) #0 comdat align 2 {
  %2 = alloca ptr, align 8
  store ptr %0, ptr %2, align 8
  %3 = load ptr, ptr %2, align 8
  %4 = getelementptr inbounds nuw %"class.llvm::RISCVTargetStreamer", ptr %3, i32 0, i32 3
  %5 = load i8, ptr %4, align 1
  %6 = trunc i8 %5 to i1
  ret i1 %6
}

; Function Attrs: mustprogress nounwind uwtable
define linkonce_odr hidden noundef zeroext i1 @_ZNK4llvm19RISCVTargetStreamer6hasRVCEv(ptr noundef nonnull align 8 dereferenceable(22) %0) #0 comdat align 2 {
  %2 = alloca ptr, align 8
  store ptr %0, ptr %2, align 8
  %3 = load ptr, ptr %2, align 8
  %4 = getelementptr inbounds nuw %"class.llvm::RISCVTargetStreamer", ptr %3, i32 0, i32 2
  %5 = load i8, ptr %4, align 4
  %6 = trunc i8 %5 to i1
  ret i1 %6
}

; Function Attrs: mustprogress nounwind uwtable
define linkonce_odr hidden noundef i32 @_ZNK4llvm15ELFObjectWriter18getELFHeaderEFlagsEv(ptr noundef nonnull align 8 dereferenceable(208) %0) #0 comdat align 2 {
  %2 = alloca ptr, align 8
  store ptr %0, ptr %2, align 8
  %3 = load ptr, ptr %2, align 8
  %4 = getelementptr inbounds nuw %"class.llvm::ELFObjectWriter", ptr %3, i32 0, i32 1
  %5 = load i32, ptr %4, align 8
  ret i32 %5
}

; Function Attrs: mustprogress nounwind uwtable
define linkonce_odr hidden noundef i32 @_ZNK4llvm19RISCVTargetStreamer12getTargetABIEv(ptr noundef nonnull align 8 dereferenceable(22) %0) #0 comdat align 2 {
  %2 = alloca ptr, align 8
  store ptr %0, ptr %2, align 8
  %3 = load ptr, ptr %2, align 8
  %4 = getelementptr inbounds nuw %"class.llvm::RISCVTargetStreamer", ptr %3, i32 0, i32 1
  %5 = load i32, ptr %4, align 8
  ret i32 %5
}

; Function Attrs: mustprogress nounwind uwtable
define dso_local noundef nonnull align 8 dereferenceable(6636) ptr @_ZN4llvm22RISCVTargetELFStreamer11getStreamerEv(ptr noundef nonnull align 8 dereferenceable(48) %0) #0 align 2 {
  %2 = alloca ptr, align 8
  store ptr %0, ptr %2, align 8
  %3 = load ptr, ptr %2, align 8
  %4 = getelementptr inbounds nuw %"class.llvm::MCTargetStreamer", ptr %3, i32 0, i32 1
  %5 = load ptr, ptr %4, align 8
  ret ptr %5
}

; Function Attrs: mustprogress nounwind uwtable
define dso_local void @_ZN4llvm22RISCVTargetELFStreamer6finishEv(ptr noundef nonnull align 8 dereferenceable(48) %0) unnamed_addr #0 align 2 {
  %2 = alloca ptr, align 8
  %3 = alloca ptr, align 8
  %4 = alloca i32, align 4
  %5 = alloca i32, align 4
  store ptr %0, ptr %2, align 8
  %6 = load ptr, ptr %2, align 8
  call void @_ZN4llvm19RISCVTargetStreamer6finishEv(ptr noundef nonnull align 8 dereferenceable(22) %6)
  %7 = call noundef nonnull align 8 dereferenceable(6636) ptr @_ZN4llvm22RISCVTargetELFStreamer11getStreamerEv(ptr noundef nonnull align 8 dereferenceable(48) %6)
  %8 = call noundef nonnull align 8 dereferenceable(208) ptr @_ZN4llvm13MCELFStreamer9getWriterEv(ptr noundef nonnull align 8 dereferenceable(6601) %7)
  store ptr %8, ptr %3, align 8
  %9 = call noundef i32 @_ZNK4llvm19RISCVTargetStreamer12getTargetABIEv(ptr noundef nonnull align 8 dereferenceable(22) %6)
  store i32 %9, ptr %4, align 4
  %10 = load ptr, ptr %3, align 8
  %11 = call noundef i32 @_ZNK4llvm15ELFObjectWriter18getELFHeaderEFlagsEv(ptr noundef nonnull align 8 dereferenceable(208) %10)
  store i32 %11, ptr %5, align 4
  %12 = call noundef zeroext i1 @_ZNK4llvm19RISCVTargetStreamer6hasRVCEv(ptr noundef nonnull align 8 dereferenceable(22) %6)
  br i1 %12, label %13, label %16

13:                                               ; preds = %1
  %14 = load i32, ptr %5, align 4
  %15 = or i32 %14, 1
  store i32 %15, ptr %5, align 4
  br label %16

16:                                               ; preds = %13, %1
  %17 = call noundef zeroext i1 @_ZNK4llvm19RISCVTargetStreamer6hasTSOEv(ptr noundef nonnull align 8 dereferenceable(22) %6)
  br i1 %17, label %18, label %21

18:                                               ; preds = %16
  %19 = load i32, ptr %5, align 4
  %20 = or i32 %19, 16
  store i32 %20, ptr %5, align 4
  br label %21

21:                                               ; preds = %18, %16
  %22 = load i32, ptr %4, align 4
  switch i32 %22, label %34 [
    i32 0, label %23
    i32 4, label %23
    i32 1, label %24
    i32 5, label %24
    i32 2, label %27
    i32 6, label %27
    i32 3, label %30
    i32 7, label %30
    i32 8, label %33
  ]

23:                                               ; preds = %21, %21
  br label %34

24:                                               ; preds = %21, %21
  %25 = load i32, ptr %5, align 4
  %26 = or i32 %25, 2
  store i32 %26, ptr %5, align 4
  br label %34

27:                                               ; preds = %21, %21
  %28 = load i32, ptr %5, align 4
  %29 = or i32 %28, 4
  store i32 %29, ptr %5, align 4
  br label %34

30:                                               ; preds = %21, %21
  %31 = load i32, ptr %5, align 4
  %32 = or i32 %31, 8
  store i32 %32, ptr %5, align 4
  br label %34

33:                                               ; preds = %21
  unreachable

34:                                               ; preds = %30, %27, %24, %23, %21
  %35 = load ptr, ptr %3, align 8
  %36 = load i32, ptr %5, align 4
  call void @_ZN4llvm15ELFObjectWriter18setELFHeaderEFlagsEj(ptr noundef nonnull align 8 dereferenceable(208) %35, i32 noundef %36)
  ret void
}