; Function Attrs: mustprogress nounwind uwtable
define dso_local void @_ZN4llvm22RISCVTargetELFStreamer6finishEv(ptr noundef nonnull align 8 dereferenceable(48) %0) unnamed_addr #0 align 2 {
  tail call void @_ZN4llvm19RISCVTargetStreamer6finishEv(ptr noundef nonnull align 8 dereferenceable(22) %0) #15
  %2 = getelementptr inbounds nuw i8, ptr %0, i64 8
  %3 = load ptr, ptr %2, align 8
  %4 = tail call noundef nonnull align 8 dereferenceable(208) ptr @_ZN4llvm13MCELFStreamer9getWriterEv(ptr noundef nonnull align 8 dereferenceable(6601) %3) #15
  %5 = getelementptr inbounds nuw i8, ptr %0, i64 16
  %6 = load i32, ptr %5, align 8
  %7 = getelementptr inbounds nuw i8, ptr %4, i64 104
  %8 = load i32, ptr %7, align 8
  %9 = getelementptr inbounds nuw i8, ptr %0, i64 20
  %10 = load i8, ptr %9, align 4
  %11 = and i8 %10, 1
  %12 = zext nneg i8 %11 to i32
  %spec.select = or i32 %8, %12
  %13 = getelementptr inbounds nuw i8, ptr %0, i64 21
  %14 = load i8, ptr %13, align 1
  %15 = trunc i8 %14 to i1
  %16 = or i32 %spec.select, 16
  %.1 = select i1 %15, i32 %16, i32 %spec.select
  switch i32 %6, label %23 [
    i32 7, label %21
    i32 3, label %21
    i32 1, label %17
    i32 5, label %17
    i32 2, label %19
    i32 6, label %19
  ]

17:                                               ; preds = %1, %1
  %18 = or i32 %.1, 2
  br label %23

19:                                               ; preds = %1, %1
  %20 = or i32 %.1, 4
  br label %23

21:                                               ; preds = %1, %1
  %22 = or i32 %.1, 8
  br label %23

23:                                               ; preds = %21, %19, %17, %1
  %.2 = phi i32 [ %.1, %1 ], [ %20, %19 ], [ %18, %17 ], [ %22, %21 ]
  store i32 %.2, ptr %7, align 8
  ret void
}